target datalayout = "e-m:e-p270:32:32-p271:32:32-p272:64:64-i64:64-i128:128-f80:128-n8:16:32:64-S128"
target triple = "x86_64-pc-linux-gnu"

%struct._generic_N_Vector = type { ptr, ptr, ptr }
%struct._N_VectorContent_Serial = type { i64, i32, ptr }

; Function Attrs: nounwind uwtable
define internal i32 @rhsQ(double noundef %0, ptr noundef %1, ptr noundef %2, ptr noundef %3, ptr noundef %4) #0 {
  %6 = alloca double, align 8
  %7 = alloca ptr, align 8
  %8 = alloca ptr, align 8
  %9 = alloca ptr, align 8
  %10 = alloca ptr, align 8
  %11 = alloca double, align 8
  %12 = alloca double, align 8
  %13 = alloca double, align 8
  store double %0, ptr %6, align 8, !tbaa !14
  store ptr %1, ptr %7, align 8, !tbaa !16
  store ptr %2, ptr %8, align 8, !tbaa !16
  store ptr %3, ptr %9, align 8, !tbaa !16
  store ptr %4, ptr %10, align 8, !tbaa !13
  call void @llvm.lifetime.start.p0(i64 8, ptr %11) #6
  call void @llvm.lifetime.start.p0(i64 8, ptr %12) #6
  call void @llvm.lifetime.start.p0(i64 8, ptr %13) #6
  %14 = load ptr, ptr %7, align 8, !tbaa !16
  %15 = getelementptr inbounds nuw %struct._generic_N_Vector, ptr %14, i32 0, i32 0
  %16 = load ptr, ptr %15, align 8, !tbaa !18
  %17 = getelementptr inbounds nuw %struct._N_VectorContent_Serial, ptr %16, i32 0, i32 2
  %18 = load ptr, ptr %17, align 8, !tbaa !21
  %19 = getelementptr inbounds double, ptr %18, i64 0
  %20 = load double, ptr %19, align 8, !tbaa !14
  store double %20, ptr %11, align 8, !tbaa !14
  %21 = load ptr, ptr %7, align 8, !tbaa !16
  %22 = getelementptr inbounds nuw %struct._generic_N_Vector, ptr %21, i32 0, i32 0
  %23 = load ptr, ptr %22, align 8, !tbaa !18
  %24 = getelementptr inbounds nuw %struct._N_VectorContent_Serial, ptr %23, i32 0, i32 2
  %25 = load ptr, ptr %24, align 8, !tbaa !21
  %26 = getelementptr inbounds double, ptr %25, i64 1
  %27 = load double, ptr %26, align 8, !tbaa !14
  store double %27, ptr %12, align 8, !tbaa !14
  %28 = load ptr, ptr %7, align 8, !tbaa !16
  %29 = getelementptr inbounds nuw %struct._generic_N_Vector, ptr %28, i32 0, i32 0
  %30 = load ptr, ptr %29, align 8, !tbaa !18
  %31 = getelementptr inbounds nuw %struct._N_VectorContent_Serial, ptr %30, i32 0, i32 2
  %32 = load ptr, ptr %31, align 8, !tbaa !21
  %33 = getelementptr inbounds double, ptr %32, i64 2
  %34 = load double, ptr %33, align 8, !tbaa !14
  store double %34, ptr %13, align 8, !tbaa !14
  %35 = load double, ptr %11, align 8, !tbaa !14
  %36 = load double, ptr %11, align 8, !tbaa !14
  %37 = load double, ptr %12, align 8, !tbaa !14
  %38 = load double, ptr %12, align 8, !tbaa !14
  %39 = fmul double %37, %38
  %40 = call double @llvm.fmuladd.f64(double %35, double %36, double %39)
  %41 = load double, ptr %13, align 8, !tbaa !14
  %42 = load double, ptr %13, align 8, !tbaa !14
  %43 = call double @llvm.fmuladd.f64(double %41, double %42, double %40)
  %44 = fmul double 5.000000e-01, %43
  %45 = load ptr, ptr %9, align 8, !tbaa !16
  %46 = getelementptr inbounds nuw %struct._generic_N_Vector, ptr %45, i32 0, i32 0
  %47 = load ptr, ptr %46, align 8, !tbaa !18
  %48 = getelementptr inbounds nuw %struct._N_VectorContent_Serial, ptr %47, i32 0, i32 2
  %49 = load ptr, ptr %48, align 8, !tbaa !21
  %50 = getelementptr inbounds double, ptr %49, i64 0
  store double %44, ptr %50, align 8, !tbaa !14
  call void @llvm.lifetime.end.p0(i64 8, ptr %13) #6
  call void @llvm.lifetime.end.p0(i64 8, ptr %12) #6
  call void @llvm.lifetime.end.p0(i64 8, ptr %11) #6
  ret i32 0
}